; Function Attrs: mustprogress nofree norecurse nosync nounwind willreturn memory(argmem: read) uwtable
define internal range(i32 -1, 3) i32 @pg_gbk_dsplen(ptr noundef readonly captures(none) %0) #0 {
  %2 = load i8, ptr %0, align 1
  %.not = icmp sgt i8 %2, -1
  br i1 %.not, label %3, label %7

3:                                                ; preds = %1
  %4 = icmp eq i8 %2, 0
  %5 = icmp samesign ult i8 %2, 32
  %6 = icmp eq i8 %2, 127
  %or.cond.i = or i1 %5, %6
  %spec.select.i = select i1 %or.cond.i, i32 -1, i32 1
  %.0.i = select i1 %4, i32 0, i32 %spec.select.i
  br label %7

7:                                                ; preds = %1, %3
  %.0 = phi i32 [ %.0.i, %3 ], [ 2, %1 ]
  ret i32 %.0
}